Certificate:
    Data:
        Version: 3 (0x2)
        Serial Number: 48 (0x30)
    Signature Algorithm: sha1WithRSAEncryption
        Issuer: C=FR, ST=Radius, L=Somewhere, O=Example Inc./emailAddress=admin@example.com, CN=Example Certificate Authority
        Validity
            Not Before: Jun  7 08:06:49 2017 GMT
            Not After : Jun  5 08:06:49 2027 GMT
        Subject: C=FR, ST=Radius, O=Example Inc., CN=user@example.com/emailAddress=user@example.com
        Subject Public Key Info:
            Public Key Algorithm: rsaEncryption
                Public-Key: (2048 bit)
                Modulus:
                    00:d2:f6:be:72:a5:ab:2e:56:0c:dd:f2:3b:2c:7c:
                    e0:5d:05:40:af:0c:8c:f3:82:0c:d0:18:34:b4:e3:
                    7d:5f:8d:0a:3e:aa:79:02:f9:96:ad:10:00:ec:51:
                    e9:dc:3f:fb:ea:b0:57:eb:48:c7:ca:ef:e8:05:ab:
                    ee:3f:66:ba:5c:9e:7f:40:85:9f:25:a0:e0:e3:7c:
                    cf:b6:e6:31:f5:fd:24:03:c8:f4:fb:d8:a4:f3:92:
                    29:05:aa:55:43:80:f7:3e:13:10:43:3a:89:24:be:
                    d8:01:86:d1:69:73:44:7d:f8:b9:46:2b:6b:51:d0:
                    11:31:4b:06:ae:9f:45:fa:12:17:0c:ef:6a:fa:d0:
                    f7:36:46:eb:2e:db:4e:20:46:01:33:ac:b1:f7:4a:
                    e6:18:3d:53:22:dc:e8:4a:12:78:11:2f:e4:3b:92:
                    bd:d7:07:5a:c9:81:5d:48:58:c8:0f:9b:e9:a4:0f:
                    bb:89:b1:ad:38:07:6f:93:d0:a6:12:56:f9:07:48:
                    d2:23:2f:a3:a9:93:b0:11:0a:27:4c:48:0a:8d:70:
                    41:68:76:7a:dd:bc:54:c3:42:33:b0:7b:f6:ae:1f:
                    e7:95:5e:11:ca:f2:b4:4b:5c:ba:47:64:f0:f3:d7:
                    87:95:7f:93:06:a1:72:c9:81:12:a5:b7:8f:9d:7e:
                    d1:ef
                Exponent: 65537 (0x10001)
        X509v3 extensions:
            X509v3 Extended Key Usage: 
                TLS Web Client Authentication
            X509v3 CRL Distribution Points: 

                Full Name:
                  URI:http://www.example.com/example_ca.crl

    Signature Algorithm: sha1WithRSAEncryption
         2d:02:bc:7b:88:b8:5c:e1:07:b8:bb:ba:b2:f3:98:14:8f:cb:
         b0:21:13:b5:e5:6f:05:4f:92:fa:ac:c0:53:a7:b0:cd:7e:ba:
         87:36:85:25:d7:41:c5:29:84:22:74:af:bf:3e:34:36:d5:24:
         7a:81:e2:1b:54:52:85:6f:76:de:dc:63:98:45:fc:2c:31:fa:
         22:a4:72:3a:8d:d4:6a:2e:de:33:10:41:eb:94:1d:e3:59:cd:
         b2:be:ab:f0:b6:20:86:9c:b8:46:ee:c5:64:ba:b6:6c:cc:53:
         44:7a:80:12:77:7c:e7:51:67:91:32:2f:88:9d:93:a8:ef:d6:
         cd:de
-----BEGIN CERTIFICATE-----
MIIDazCCAlOgAwIBAgIUECIAlsxlL1b7PfbQ6k/GWodV0eQwDQYJKoZIhvcNAQEL
BQAwRTELMAkGA1UEBhMCQVUxEzARBgNVBAgMClNvbWUtU3RhdGUxITAfBgNVBAoM
GEludGVybmV0IFdpZGdpdHMgUHR5IEx0ZDAeFw0yMDEwMjcxOTM1NDRaFw0yMDEx
MjYxOTM1NDRaMEUxCzAJBgNVBAYTAkFVMRMwEQYDVQQIDApTb21lLVN0YXRlMSEw
HwYDVQQKDBhJbnRlcm5ldCBXaWRnaXRzIFB0eSBMdGQwggEiMA0GCSqGSIb3DQEB
AQUAA4IBDwAwggEKAoIBAQDYR4CSDyEkjkfAyoIO9wFd8z8MjsRaCJkhPqwFB52d
/k9dBC1IM0yY79ETf9tpayP2VTGdq29yjOPe8TKi/deFPG9RJcTw5c1sZebdzgL/
7N8WQ31vgOs8H4hSjQB7bKfQTL3cC3DNQPW3ZCeHPGFtoCr5Gn2byiNoIt9SB+Nd
FzS/0GrGFDWehk4mZW4+PmLzdV1wtEvlGmqQ5QKelDDesk7uGgYnWUycf+qgSWlM
NHgJCBr493brQndMfmu/1eXXvLTEl9nfkuYPBW78gH0Yb8stjc/loAyMmqr6vao+
k0vwE+MKr7tW0KQF85r3Q5dHg/a2CiUMy1idMX9PkR3vAgMBAAGjUzBRMB0GA1Ud
DgQWBBS9xY9cgtftUHfsGw2h1Nqz8ShLvTAfBgNVHSMEGDAWgBS9xY9cgtftUHfs
Gw2h1Nqz8ShLvTAPBgNVHRMBAf8EBTADAQH/MA0GCSqGSIb3DQEBCwUAA4IBAQDW
6Hw2Sqe5ZEVYQ4h9IpW2Kyu4uqJsdZrsMMRdICf4/t0YaOq54topul/0ioBIt05U
OOA/yUGRg9Ybmzcc2elz1L6spoObQ7jfn4Ok5P7/9VSotWzcxv3e0vxSn7ZsibhB
Cszo04pUtzzPrnvkAr/vzuj6rrGvDKv/HGylBjf3JNFiarDsXenwgiOpNVPRpaBq
cAz+aB/OCmINQ4pc5fNTRW7FcgGu0AdAWEV8M1C7hCP7DIMbajwRF0nN3AEQljFo
9I+uOBJCBudE7k0f3kt3Ta0mtZHCuWO8HNoE4JAtTF5t9ZI29VHU8mNBFaqXdxfe
MwASeY525NyM/TmfVr0A
-----END CERTIFICATE-----
